ARM GAS  C:\Users\noemi\AppData\Local\Temp\cco4ar4Z.s 			page 1


   1              		.syntax unified
   2              		.cpu cortex-m3
   3              		.fpu softvfp
   4              		.eabi_attribute 20, 1
   5              		.eabi_attribute 21, 1
   6              		.eabi_attribute 23, 3
   7              		.eabi_attribute 24, 1
   8              		.eabi_attribute 25, 1
   9              		.eabi_attribute 26, 1
  10              		.eabi_attribute 30, 1
  11              		.eabi_attribute 34, 1
  12              		.eabi_attribute 18, 4
  13              		.thumb
  14              		.syntax unified
  15              		.file	"main.c"
  16              		.text
  17              	.Ltext0:
  18              		.cfi_sections	.debug_frame
  19              		.global	__aeabi_i2d
  20              		.global	__aeabi_dmul
  21              		.global	__aeabi_d2f
  22              		.global	__aeabi_f2iz
  23              		.section	.text.main,"ax",%progbits
  24              		.align	2
  25              		.global	main
  26              		.thumb
  27              		.thumb_func
  28              		.type	main, %function
  29              	main:
  30              	.LFB64:
  31              		.file 1 "main.c"
   1:main.c        **** /**
   2:main.c        **** * \brief Main source file for the I2C-Master project.
   3:main.c        **** *
   4:main.c        **** * In this project we set up a I2C master device with
   5:main.c        **** * to understand the I2C protocol and communicate with a
   6:main.c        **** * a I2C Slave device (LIS3DH Accelerometer).
   7:main.c        **** *
   8:main.c        **** * \author Noemi Gozzi
   9:main.c        **** * \date April 2020
  10:main.c        **** */
  11:main.c        **** 
  12:main.c        **** // Include required header files
  13:main.c        **** #include "I2C_Interface.h"
  14:main.c        **** #include "project.h"
  15:main.c        **** #include "stdio.h"
  16:main.c        **** #include "InterruptRoutines.h"
  17:main.c        **** 
  18:main.c        **** /**
  19:main.c        **** *   \brief 7-bit I2C address of the slave device.
  20:main.c        **** */
  21:main.c        **** #define LIS3DH_DEVICE_ADDRESS 0x18
  22:main.c        **** 
  23:main.c        **** /**
  24:main.c        **** *   \brief Address of the WHO AM I register
  25:main.c        **** */
  26:main.c        **** #define LIS3DH_WHO_AM_I_REG_ADDR 0x0F
ARM GAS  C:\Users\noemi\AppData\Local\Temp\cco4ar4Z.s 			page 2


  27:main.c        **** 
  28:main.c        **** /**
  29:main.c        **** *   \brief Address of the Status register
  30:main.c        **** */
  31:main.c        **** #define LIS3DH_STATUS_REG 0x27
  32:main.c        **** 
  33:main.c        **** /**
  34:main.c        **** *   \brief Address of the Control register 1
  35:main.c        **** */
  36:main.c        **** #define LIS3DH_CTRL_REG1 0x20
  37:main.c        **** 
  38:main.c        **** /**
  39:main.c        **** *   \brief Hex value to set normal mode to the accelerator
  40:main.c        **** */
  41:main.c        **** #define LIS3DH_NORMAL_MODE_CTRL_REG1 0x47
  42:main.c        **** 
  43:main.c        **** /**
  44:main.c        **** *   \brief  Address of the Temperature Sensor Configuration register
  45:main.c        **** */
  46:main.c        **** #define LIS3DH_TEMP_CFG_REG 0x1F
  47:main.c        **** 
  48:main.c        **** #define LIS3DH_TEMP_CFG_REG_ACTIVE 0xC0
  49:main.c        **** 
  50:main.c        **** /**
  51:main.c        **** *   \brief Address of the Control register 4
  52:main.c        **** */
  53:main.c        **** #define LIS3DH_CTRL_REG4 0x23
  54:main.c        **** 
  55:main.c        **** #define LIS3DH_CTRL_REG4_BDU_ACTIVE 0x80
  56:main.c        **** 
  57:main.c        **** /**
  58:main.c        **** *   \brief Address of the ADC output LSB register
  59:main.c        **** */
  60:main.c        **** #define LIS3DH_OUT_ADC_3L 0x0C
  61:main.c        **** 
  62:main.c        **** /**
  63:main.c        **** *   \brief Address of the ADC output MSB register
  64:main.c        **** */
  65:main.c        **** #define LIS3DH_OUT_ADC_3H 0x0D
  66:main.c        **** 
  67:main.c        **** #define LIS3DH_OUT_X_L 0x28 //register for acceleration in X (LSB)
  68:main.c        **** 
  69:main.c        **** /**
  70:main.c        **** *   Hex value to set the accelerator in high resolution mode acceleration and 100 Hz,
  71:main.c        ****     correspondent to 0101 1000, enabling XYZ 
  72:main.c        **** */
  73:main.c        **** #define LIS3DH_HIGH_RES_CTRL_REG1_XYZ_100 0x57
  74:main.c        **** 
  75:main.c        **** /*
  76:main.c        **** ctrl register 4 inhigh resolutio HR=1, +- 4g (bit FS[1:0] set to 01 --> FSR +-4g
  77:main.c        **** */
  78:main.c        **** #define LIS3DH_CTRL_REG4_HIGH_RES 0x18
  79:main.c        **** 
  80:main.c        **** #define packet_dimension 14 //3 acceleration data each 4 byte and 1 header and 1 tail
  81:main.c        **** 
  82:main.c        **** int main(void)
  83:main.c        **** {
ARM GAS  C:\Users\noemi\AppData\Local\Temp\cco4ar4Z.s 			page 3


  32              		.loc 1 83 0
  33              		.cfi_startproc
  34              		@ args = 0, pretend = 0, frame = 72
  35              		@ frame_needed = 0, uses_anonymous_args = 0
  36 0000 F0B5     		push	{r4, r5, r6, r7, lr}
  37              		.cfi_def_cfa_offset 20
  38              		.cfi_offset 4, -20
  39              		.cfi_offset 5, -16
  40              		.cfi_offset 6, -12
  41              		.cfi_offset 7, -8
  42              		.cfi_offset 14, -4
  43 0002 93B0     		sub	sp, sp, #76
  44              		.cfi_def_cfa_offset 96
  84:main.c        ****     CyGlobalIntEnable; /* Enable global interrupts. */
  45              		.loc 1 84 0
  46              		.syntax unified
  47              	@ 84 "main.c" 1
  48 0004 62B6     		CPSIE   i
  49              	@ 0 "" 2
  85:main.c        **** 
  86:main.c        ****     /* Place your initialization/startup code here (e.g. MyInst_Start()) */
  87:main.c        ****     I2C_Peripheral_Start();
  50              		.loc 1 87 0
  51              		.thumb
  52              		.syntax unified
  53 0006 FFF7FEFF 		bl	I2C_Peripheral_Start
  54              	.LVL0:
  88:main.c        ****     UART_Debug_Start();
  55              		.loc 1 88 0
  56 000a FFF7FEFF 		bl	UART_Debug_Start
  57              	.LVL1:
  89:main.c        ****     
  90:main.c        ****     CyDelay(5); //"The boot procedure is complete about 5 milliseconds after device power-up."
  58              		.loc 1 90 0
  59 000e 0520     		movs	r0, #5
  60 0010 FFF7FEFF 		bl	CyDelay
  61              	.LVL2:
  62              	.LBB2:
  91:main.c        ****     
  92:main.c        ****     // String to print out messages on the UART
  93:main.c        ****     char message[50];
  94:main.c        **** 
  95:main.c        ****     // Check which devices are present on the I2C bus
  96:main.c        ****     for (int i = 0 ; i < 128; i++)
  63              		.loc 1 96 0
  64 0014 0024     		movs	r4, #0
  65 0016 0CE0     		b	.L2
  66              	.LVL3:
  67              	.L4:
  97:main.c        ****     {
  98:main.c        ****         if (I2C_Peripheral_IsDeviceConnected(i))
  68              		.loc 1 98 0
  69 0018 E0B2     		uxtb	r0, r4
  70 001a FFF7FEFF 		bl	I2C_Peripheral_IsDeviceConnected
  71              	.LVL4:
  72 001e 38B1     		cbz	r0, .L3
  99:main.c        ****         {
ARM GAS  C:\Users\noemi\AppData\Local\Temp\cco4ar4Z.s 			page 4


 100:main.c        ****             // print out the address is hex format
 101:main.c        ****             sprintf(message, "Device 0x%02X is connected\r\n", i);
  73              		.loc 1 101 0
  74 0020 2246     		mov	r2, r4
  75 0022 9D49     		ldr	r1, .L24+8
  76 0024 05A8     		add	r0, sp, #20
  77 0026 FFF7FEFF 		bl	sprintf
  78              	.LVL5:
 102:main.c        ****             UART_Debug_PutString(message); 
  79              		.loc 1 102 0
  80 002a 05A8     		add	r0, sp, #20
  81 002c FFF7FEFF 		bl	UART_Debug_PutString
  82              	.LVL6:
  83              	.L3:
  96:main.c        ****     {
  84              		.loc 1 96 0 discriminator 2
  85 0030 0134     		adds	r4, r4, #1
  86              	.LVL7:
  87              	.L2:
  96:main.c        ****     {
  88              		.loc 1 96 0 is_stmt 0 discriminator 1
  89 0032 7F2C     		cmp	r4, #127
  90 0034 F0DD     		ble	.L4
  91              	.LBE2:
 103:main.c        ****         }
 104:main.c        ****         
 105:main.c        ****     }
 106:main.c        ****     
 107:main.c        ****     /******************************************/
 108:main.c        ****     /*            I2C Reading                 */
 109:main.c        ****     /******************************************/
 110:main.c        ****     
 111:main.c        ****     /* Read WHO AM I REGISTER register */
 112:main.c        ****     uint8_t who_am_i_reg;
 113:main.c        ****     ErrorCode error = I2C_Peripheral_ReadRegister(LIS3DH_DEVICE_ADDRESS,
  92              		.loc 1 113 0 is_stmt 1
  93 0036 0DF11302 		add	r2, sp, #19
  94 003a 0F21     		movs	r1, #15
  95 003c 1820     		movs	r0, #24
  96 003e FFF7FEFF 		bl	I2C_Peripheral_ReadRegister
  97              	.LVL8:
 114:main.c        ****                                                   LIS3DH_WHO_AM_I_REG_ADDR, 
 115:main.c        ****                                                   &who_am_i_reg);
 116:main.c        ****     if (error == NO_ERROR)
  98              		.loc 1 116 0
  99 0042 48B9     		cbnz	r0, .L5
 117:main.c        ****     {
 118:main.c        ****         sprintf(message, "WHO AM I REG: 0x%02X [Expected: 0x33]\r\n", who_am_i_reg);
 100              		.loc 1 118 0
 101 0044 9DF81320 		ldrb	r2, [sp, #19]	@ zero_extendqisi2
 102 0048 9449     		ldr	r1, .L24+12
 103 004a 05A8     		add	r0, sp, #20
 104              	.LVL9:
 105 004c FFF7FEFF 		bl	sprintf
 106              	.LVL10:
 119:main.c        ****         UART_Debug_PutString(message); 
 107              		.loc 1 119 0
ARM GAS  C:\Users\noemi\AppData\Local\Temp\cco4ar4Z.s 			page 5


 108 0050 05A8     		add	r0, sp, #20
 109 0052 FFF7FEFF 		bl	UART_Debug_PutString
 110              	.LVL11:
 111 0056 02E0     		b	.L6
 112              	.LVL12:
 113              	.L5:
 120:main.c        ****     }
 121:main.c        ****     else
 122:main.c        ****     {
 123:main.c        ****         UART_Debug_PutString("Error occurred during I2C comm\r\n");   
 114              		.loc 1 123 0
 115 0058 9148     		ldr	r0, .L24+16
 116              	.LVL13:
 117 005a FFF7FEFF 		bl	UART_Debug_PutString
 118              	.LVL14:
 119              	.L6:
 124:main.c        ****     }
 125:main.c        ****     
 126:main.c        ****     /*      I2C Reading Status Register       */
 127:main.c        ****     
 128:main.c        ****     uint8_t status_register; 
 129:main.c        ****     error = I2C_Peripheral_ReadRegister(LIS3DH_DEVICE_ADDRESS,
 120              		.loc 1 129 0
 121 005e 0DF11202 		add	r2, sp, #18
 122 0062 2721     		movs	r1, #39
 123 0064 1820     		movs	r0, #24
 124 0066 FFF7FEFF 		bl	I2C_Peripheral_ReadRegister
 125              	.LVL15:
 130:main.c        ****                                         LIS3DH_STATUS_REG,
 131:main.c        ****                                         &status_register);
 132:main.c        ****     
 133:main.c        ****     if (error == NO_ERROR)
 126              		.loc 1 133 0
 127 006a 48B9     		cbnz	r0, .L7
 134:main.c        ****     {
 135:main.c        ****         sprintf(message, "STATUS REGISTER: 0x%02X\r\n", status_register);
 128              		.loc 1 135 0
 129 006c 9DF81220 		ldrb	r2, [sp, #18]	@ zero_extendqisi2
 130 0070 8C49     		ldr	r1, .L24+20
 131 0072 05A8     		add	r0, sp, #20
 132              	.LVL16:
 133 0074 FFF7FEFF 		bl	sprintf
 134              	.LVL17:
 136:main.c        ****         UART_Debug_PutString(message); 
 135              		.loc 1 136 0
 136 0078 05A8     		add	r0, sp, #20
 137 007a FFF7FEFF 		bl	UART_Debug_PutString
 138              	.LVL18:
 139 007e 02E0     		b	.L8
 140              	.LVL19:
 141              	.L7:
 137:main.c        ****     }
 138:main.c        ****     else
 139:main.c        ****     {
 140:main.c        ****         UART_Debug_PutString("Error occurred during I2C comm to read status register\r\n");   
 142              		.loc 1 140 0
 143 0080 8948     		ldr	r0, .L24+24
ARM GAS  C:\Users\noemi\AppData\Local\Temp\cco4ar4Z.s 			page 6


 144              	.LVL20:
 145 0082 FFF7FEFF 		bl	UART_Debug_PutString
 146              	.LVL21:
 147              	.L8:
 141:main.c        ****     }
 142:main.c        ****     
 143:main.c        ****     /******************************************/
 144:main.c        ****     /*        Read Control Register 1         */
 145:main.c        ****     /******************************************/
 146:main.c        ****     uint8_t ctrl_reg1; 
 147:main.c        ****     error = I2C_Peripheral_ReadRegister(LIS3DH_DEVICE_ADDRESS,
 148              		.loc 1 147 0
 149 0086 0DF11102 		add	r2, sp, #17
 150 008a 2021     		movs	r1, #32
 151 008c 1820     		movs	r0, #24
 152 008e FFF7FEFF 		bl	I2C_Peripheral_ReadRegister
 153              	.LVL22:
 148:main.c        ****                                         LIS3DH_CTRL_REG1,
 149:main.c        ****                                         &ctrl_reg1);
 150:main.c        ****     
 151:main.c        ****     if (error == NO_ERROR)
 154              		.loc 1 151 0
 155 0092 48B9     		cbnz	r0, .L9
 152:main.c        ****     {
 153:main.c        ****         sprintf(message, "CONTROL REGISTER 1: 0x%02X\r\n", ctrl_reg1);
 156              		.loc 1 153 0
 157 0094 9DF81120 		ldrb	r2, [sp, #17]	@ zero_extendqisi2
 158 0098 8449     		ldr	r1, .L24+28
 159 009a 05A8     		add	r0, sp, #20
 160              	.LVL23:
 161 009c FFF7FEFF 		bl	sprintf
 162              	.LVL24:
 154:main.c        ****         UART_Debug_PutString(message); 
 163              		.loc 1 154 0
 164 00a0 05A8     		add	r0, sp, #20
 165 00a2 FFF7FEFF 		bl	UART_Debug_PutString
 166              	.LVL25:
 167 00a6 02E0     		b	.L10
 168              	.LVL26:
 169              	.L9:
 155:main.c        ****     }
 156:main.c        ****     else
 157:main.c        ****     {
 158:main.c        ****         UART_Debug_PutString("Error occurred during I2C comm to read control register 1\r\n");   
 170              		.loc 1 158 0
 171 00a8 8148     		ldr	r0, .L24+32
 172              	.LVL27:
 173 00aa FFF7FEFF 		bl	UART_Debug_PutString
 174              	.LVL28:
 175              	.L10:
 159:main.c        ****     }
 160:main.c        ****     
 161:main.c        ****     /******************************************/
 162:main.c        ****     /*            I2C Writing                 */
 163:main.c        ****     /******************************************/
 164:main.c        ****     
 165:main.c        ****         
ARM GAS  C:\Users\noemi\AppData\Local\Temp\cco4ar4Z.s 			page 7


 166:main.c        ****     
 167:main.c        ****     
 168:main.c        ****     if (ctrl_reg1 != LIS3DH_HIGH_RES_CTRL_REG1_XYZ_100)
 176              		.loc 1 168 0
 177 00ae 9DF81130 		ldrb	r3, [sp, #17]	@ zero_extendqisi2
 178 00b2 572B     		cmp	r3, #87
 179 00b4 28D0     		beq	.L11
 169:main.c        ****     {
 170:main.c        **** 
 171:main.c        ****         ctrl_reg1 = LIS3DH_HIGH_RES_CTRL_REG1_XYZ_100;
 180              		.loc 1 171 0
 181 00b6 5722     		movs	r2, #87
 182 00b8 8DF81120 		strb	r2, [sp, #17]
 172:main.c        ****     
 173:main.c        ****         error = I2C_Peripheral_WriteRegister(LIS3DH_DEVICE_ADDRESS,
 183              		.loc 1 173 0
 184 00bc 2021     		movs	r1, #32
 185 00be 1820     		movs	r0, #24
 186 00c0 FFF7FEFF 		bl	I2C_Peripheral_WriteRegister
 187              	.LVL29:
 174:main.c        ****                                              LIS3DH_CTRL_REG1,
 175:main.c        ****                                              ctrl_reg1);
 176:main.c        ****     
 177:main.c        ****         if (error == NO_ERROR)
 188              		.loc 1 177 0
 189 00c4 48B9     		cbnz	r0, .L12
 178:main.c        ****         {
 179:main.c        ****             sprintf(message, "CONTROL REGISTER 1 successfully written as: 0x%02X\r\n", ctrl_reg1);
 190              		.loc 1 179 0
 191 00c6 9DF81120 		ldrb	r2, [sp, #17]	@ zero_extendqisi2
 192 00ca 7A49     		ldr	r1, .L24+36
 193 00cc 05A8     		add	r0, sp, #20
 194              	.LVL30:
 195 00ce FFF7FEFF 		bl	sprintf
 196              	.LVL31:
 180:main.c        ****             UART_Debug_PutString(message); 
 197              		.loc 1 180 0
 198 00d2 05A8     		add	r0, sp, #20
 199 00d4 FFF7FEFF 		bl	UART_Debug_PutString
 200              	.LVL32:
 201 00d8 02E0     		b	.L13
 202              	.LVL33:
 203              	.L12:
 181:main.c        ****         }
 182:main.c        ****         else
 183:main.c        ****         {
 184:main.c        ****             UART_Debug_PutString("Error occurred during I2C comm to set control register 1\r\n");  
 204              		.loc 1 184 0
 205 00da 7748     		ldr	r0, .L24+40
 206              	.LVL34:
 207 00dc FFF7FEFF 		bl	UART_Debug_PutString
 208              	.LVL35:
 209              	.L13:
 185:main.c        ****         }
 186:main.c        ****         /******************************************/
 187:main.c        ****         /*     Read Control Register 1 again      */
 188:main.c        ****         /******************************************/
ARM GAS  C:\Users\noemi\AppData\Local\Temp\cco4ar4Z.s 			page 8


 189:main.c        **** 
 190:main.c        ****         error = I2C_Peripheral_ReadRegister(LIS3DH_DEVICE_ADDRESS,
 210              		.loc 1 190 0
 211 00e0 0DF11102 		add	r2, sp, #17
 212 00e4 2021     		movs	r1, #32
 213 00e6 1820     		movs	r0, #24
 214 00e8 FFF7FEFF 		bl	I2C_Peripheral_ReadRegister
 215              	.LVL36:
 191:main.c        ****                                             LIS3DH_CTRL_REG1,
 192:main.c        ****                                             &ctrl_reg1);
 193:main.c        ****         
 194:main.c        ****         if (error == NO_ERROR)
 216              		.loc 1 194 0
 217 00ec 48B9     		cbnz	r0, .L14
 195:main.c        ****         {
 196:main.c        ****             sprintf(message, "CONTROL REGISTER 1 after being updated: 0x%02X\r\n", ctrl_reg1);
 218              		.loc 1 196 0
 219 00ee 9DF81120 		ldrb	r2, [sp, #17]	@ zero_extendqisi2
 220 00f2 7249     		ldr	r1, .L24+44
 221 00f4 05A8     		add	r0, sp, #20
 222              	.LVL37:
 223 00f6 FFF7FEFF 		bl	sprintf
 224              	.LVL38:
 197:main.c        ****             UART_Debug_PutString(message); 
 225              		.loc 1 197 0
 226 00fa 05A8     		add	r0, sp, #20
 227 00fc FFF7FEFF 		bl	UART_Debug_PutString
 228              	.LVL39:
 229 0100 02E0     		b	.L11
 230              	.LVL40:
 231              	.L14:
 198:main.c        ****         }
 199:main.c        ****         else
 200:main.c        ****         {
 201:main.c        ****             UART_Debug_PutString("Error occurred during I2C comm to read control register 1\r\n"); 
 232              		.loc 1 201 0
 233 0102 6B48     		ldr	r0, .L24+32
 234              	.LVL41:
 235 0104 FFF7FEFF 		bl	UART_Debug_PutString
 236              	.LVL42:
 237              	.L11:
 202:main.c        ****         }
 203:main.c        ****     }
 204:main.c        ****     
 205:main.c        ****     
 206:main.c        ****     
 207:main.c        ****     
 208:main.c        ****     
 209:main.c        ****      /******************************************/
 210:main.c        ****     /*     Read Control Register 4     */
 211:main.c        ****     /******************************************/
 212:main.c        ****     uint8_t ctrl_reg4;
 213:main.c        **** 
 214:main.c        ****     error = I2C_Peripheral_ReadRegister(LIS3DH_DEVICE_ADDRESS,
 238              		.loc 1 214 0
 239 0108 04AA     		add	r2, sp, #16
 240 010a 2321     		movs	r1, #35
ARM GAS  C:\Users\noemi\AppData\Local\Temp\cco4ar4Z.s 			page 9


 241 010c 1820     		movs	r0, #24
 242 010e FFF7FEFF 		bl	I2C_Peripheral_ReadRegister
 243              	.LVL43:
 215:main.c        ****                                         LIS3DH_CTRL_REG4,
 216:main.c        ****                                         &ctrl_reg4);
 217:main.c        ****     
 218:main.c        ****     if (error == NO_ERROR)
 244              		.loc 1 218 0
 245 0112 48B9     		cbnz	r0, .L15
 219:main.c        ****     {
 220:main.c        ****         sprintf(message, "CONTROL REGISTER 4: 0x%02X\r\n", ctrl_reg4);
 246              		.loc 1 220 0
 247 0114 9DF81020 		ldrb	r2, [sp, #16]	@ zero_extendqisi2
 248 0118 6949     		ldr	r1, .L24+48
 249 011a 05A8     		add	r0, sp, #20
 250              	.LVL44:
 251 011c FFF7FEFF 		bl	sprintf
 252              	.LVL45:
 221:main.c        ****         UART_Debug_PutString(message); 
 253              		.loc 1 221 0
 254 0120 05A8     		add	r0, sp, #20
 255 0122 FFF7FEFF 		bl	UART_Debug_PutString
 256              	.LVL46:
 257 0126 02E0     		b	.L16
 258              	.LVL47:
 259              	.L15:
 222:main.c        ****     }
 223:main.c        ****     else
 224:main.c        ****     {
 225:main.c        ****         UART_Debug_PutString("Error occurred during I2C comm to read control register4\r\n");   
 260              		.loc 1 225 0
 261 0128 6648     		ldr	r0, .L24+52
 262              	.LVL48:
 263 012a FFF7FEFF 		bl	UART_Debug_PutString
 264              	.LVL49:
 265              	.L16:
 226:main.c        ****     }
 227:main.c        ****     
 228:main.c        ****     /******************************************/
 229:main.c        ****     /*            I2C Writing   REGISTER 4              */
 230:main.c        ****     /******************************************/
 231:main.c        ****     
 232:main.c        ****     
 233:main.c        ****     if (ctrl_reg4 != LIS3DH_CTRL_REG4_HIGH_RES)
 266              		.loc 1 233 0
 267 012e 9DF81030 		ldrb	r3, [sp, #16]	@ zero_extendqisi2
 268 0132 182B     		cmp	r3, #24
 269 0134 27D0     		beq	.L17
 234:main.c        ****     {
 235:main.c        **** 
 236:main.c        ****         ctrl_reg4 = LIS3DH_CTRL_REG4_HIGH_RES;
 270              		.loc 1 236 0
 271 0136 1820     		movs	r0, #24
 272 0138 8DF81000 		strb	r0, [sp, #16]
 237:main.c        ****     
 238:main.c        ****         error = I2C_Peripheral_WriteRegister(LIS3DH_DEVICE_ADDRESS,
 273              		.loc 1 238 0
ARM GAS  C:\Users\noemi\AppData\Local\Temp\cco4ar4Z.s 			page 10


 274 013c 0246     		mov	r2, r0
 275 013e 2321     		movs	r1, #35
 276 0140 FFF7FEFF 		bl	I2C_Peripheral_WriteRegister
 277              	.LVL50:
 239:main.c        ****                                              LIS3DH_CTRL_REG4,
 240:main.c        ****                                              ctrl_reg4);
 241:main.c        ****     
 242:main.c        ****         if (error == NO_ERROR)
 278              		.loc 1 242 0
 279 0144 48B9     		cbnz	r0, .L18
 243:main.c        ****         {
 244:main.c        ****             sprintf(message, "CONTROL REGISTER 4 successfully written as: 0x%02X\r\n", ctrl_reg4);
 280              		.loc 1 244 0
 281 0146 9DF81020 		ldrb	r2, [sp, #16]	@ zero_extendqisi2
 282 014a 5F49     		ldr	r1, .L24+56
 283 014c 05A8     		add	r0, sp, #20
 284              	.LVL51:
 285 014e FFF7FEFF 		bl	sprintf
 286              	.LVL52:
 245:main.c        ****             UART_Debug_PutString(message); 
 287              		.loc 1 245 0
 288 0152 05A8     		add	r0, sp, #20
 289 0154 FFF7FEFF 		bl	UART_Debug_PutString
 290              	.LVL53:
 291 0158 02E0     		b	.L19
 292              	.LVL54:
 293              	.L18:
 246:main.c        ****         }
 247:main.c        ****         else
 248:main.c        ****         {
 249:main.c        ****             UART_Debug_PutString("Error occurred during I2C comm to set control register 1\r\n");  
 294              		.loc 1 249 0
 295 015a 5748     		ldr	r0, .L24+40
 296              	.LVL55:
 297 015c FFF7FEFF 		bl	UART_Debug_PutString
 298              	.LVL56:
 299              	.L19:
 250:main.c        ****         }
 251:main.c        ****         error = I2C_Peripheral_ReadRegister(LIS3DH_DEVICE_ADDRESS,
 300              		.loc 1 251 0
 301 0160 04AA     		add	r2, sp, #16
 302 0162 2321     		movs	r1, #35
 303 0164 1820     		movs	r0, #24
 304 0166 FFF7FEFF 		bl	I2C_Peripheral_ReadRegister
 305              	.LVL57:
 252:main.c        ****                                         LIS3DH_CTRL_REG4,
 253:main.c        ****                                         &ctrl_reg4);
 254:main.c        ****     
 255:main.c        ****         //if updated print the new value
 256:main.c        ****         if (error == NO_ERROR)
 306              		.loc 1 256 0
 307 016a 48B9     		cbnz	r0, .L20
 257:main.c        ****         {
 258:main.c        ****             sprintf(message, "CONTROL REGISTER 4 after being updated: 0x%02X\r\n", ctrl_reg4);
 308              		.loc 1 258 0
 309 016c 9DF81020 		ldrb	r2, [sp, #16]	@ zero_extendqisi2
 310 0170 5649     		ldr	r1, .L24+60
ARM GAS  C:\Users\noemi\AppData\Local\Temp\cco4ar4Z.s 			page 11


 311 0172 05A8     		add	r0, sp, #20
 312              	.LVL58:
 313 0174 FFF7FEFF 		bl	sprintf
 314              	.LVL59:
 259:main.c        ****             UART_Debug_PutString(message); 
 315              		.loc 1 259 0
 316 0178 05A8     		add	r0, sp, #20
 317 017a FFF7FEFF 		bl	UART_Debug_PutString
 318              	.LVL60:
 319 017e 02E0     		b	.L17
 320              	.LVL61:
 321              	.L20:
 260:main.c        ****         }
 261:main.c        ****         else
 262:main.c        ****         {
 263:main.c        ****             UART_Debug_PutString("Error occurred during I2C comm to read control register4\r\n");  
 322              		.loc 1 263 0
 323 0180 5048     		ldr	r0, .L24+52
 324              	.LVL62:
 325 0182 FFF7FEFF 		bl	UART_Debug_PutString
 326              	.LVL63:
 327              	.L17:
 264:main.c        ****         }
 265:main.c        ****         
 266:main.c        ****     }
 267:main.c        ****     //timer initialization to be sure that ISR is not interrupting register setting 
 268:main.c        ****     Timer_Start();
 328              		.loc 1 268 0
 329 0186 FFF7FEFF 		bl	Timer_Start
 330              	.LVL64:
 269:main.c        ****     isr_timer_StartEx(Custom_ISR_Timer_XYZ);
 331              		.loc 1 269 0
 332 018a 5148     		ldr	r0, .L24+64
 333 018c FFF7FEFF 		bl	isr_timer_StartEx
 334              	.LVL65:
 270:main.c        ****     
 271:main.c        ****     int16_t OutX; //data from 2 8-bits registers
 272:main.c        ****     int16_t OutY;
 273:main.c        ****     int16_t OutZ;
 274:main.c        ****     float32 OutX_f; //data after conversion in m/s^2
 275:main.c        ****     float32 OutY_f;
 276:main.c        ****     float32 OutZ_f;
 277:main.c        ****     int32 OutX_32; //data after conversion casted to int
 278:main.c        ****     int32 OutY_32;
 279:main.c        ****     int32 OutZ_32;
 280:main.c        ****     uint8_t header = 0xA0;
 281:main.c        ****     uint8_t footer = 0xC0;
 282:main.c        ****     uint8_t OutArray[packet_dimension]; 
 283:main.c        ****     
 284:main.c        ****     OutArray[0] = header;
 335              		.loc 1 284 0
 336 0190 A023     		movs	r3, #160
 337 0192 8DF80030 		strb	r3, [sp]
 285:main.c        ****     OutArray[packet_dimension-1] = footer;
 338              		.loc 1 285 0
 339 0196 C023     		movs	r3, #192
 340 0198 8DF80D30 		strb	r3, [sp, #13]
ARM GAS  C:\Users\noemi\AppData\Local\Temp\cco4ar4Z.s 			page 12


 286:main.c        ****     PacketReadyFlag=0;
 341              		.loc 1 286 0
 342 019c 0022     		movs	r2, #0
 343 019e 4D4B     		ldr	r3, .L24+68
 344 01a0 1A70     		strb	r2, [r3]
 345              	.LVL66:
 346              	.L21:
 287:main.c        ****     
 288:main.c        ****     for(;;)
 289:main.c        ****     {
 290:main.c        ****                 
 291:main.c        ****         if (PacketReadyFlag){
 347              		.loc 1 291 0
 348 01a2 4C4B     		ldr	r3, .L24+68
 349 01a4 1B78     		ldrb	r3, [r3]	@ zero_extendqisi2
 350 01a6 13F0FF0F 		tst	r3, #255
 351 01aa FAD0     		beq	.L21
 292:main.c        ****                 /*
 293:main.c        ****                 in section 3.2.1 of the datasheet is specified that in high resolution mode mg/digi
 294:main.c        ****                 when FSR=+-2g, nbit=12bit; Since the FSR is 4g the sensitivy to change from digit t
 295:main.c        ****                 each value is rescaled in mg
 296:main.c        ****                 FSR/2 in digit=2048; FSR/2 in mg=4000; value[mg]=value[digit]*4000/2048
 297:main.c        ****                 */
 298:main.c        ****                 PacketReadyFlag=0;
 352              		.loc 1 298 0
 353 01ac 0022     		movs	r2, #0
 354 01ae 494B     		ldr	r3, .L24+68
 355 01b0 1A70     		strb	r2, [r3]
 299:main.c        ****                 OutX = ((int16)((Acceleration[0]) | (Acceleration[1])<<8)>>4)*2;
 356              		.loc 1 299 0
 357 01b2 494A     		ldr	r2, .L24+72
 358 01b4 1378     		ldrb	r3, [r2]	@ zero_extendqisi2
 359 01b6 5078     		ldrb	r0, [r2, #1]	@ zero_extendqisi2
 360 01b8 43EA0020 		orr	r0, r3, r0, lsl #8
 361 01bc 40F30B10 		sbfx	r0, r0, #4, #12
 362              	.LVL67:
 300:main.c        ****                 OutY = ((int16)((Acceleration[2]) | (Acceleration[3])<<8)>>4)*2;
 363              		.loc 1 300 0
 364 01c0 9378     		ldrb	r3, [r2, #2]	@ zero_extendqisi2
 365 01c2 D578     		ldrb	r5, [r2, #3]	@ zero_extendqisi2
 366 01c4 43EA0525 		orr	r5, r3, r5, lsl #8
 367 01c8 45F30B15 		sbfx	r5, r5, #4, #12
 368 01cc 6D00     		lsls	r5, r5, #1
 369              	.LVL68:
 301:main.c        ****                 OutZ = ((int16)((Acceleration[4]) | (Acceleration[5])<<8)>>4)*2;
 370              		.loc 1 301 0
 371 01ce 1379     		ldrb	r3, [r2, #4]	@ zero_extendqisi2
 372 01d0 5479     		ldrb	r4, [r2, #5]	@ zero_extendqisi2
 373 01d2 43EA0424 		orr	r4, r3, r4, lsl #8
 374 01d6 44F30B14 		sbfx	r4, r4, #4, #12
 375 01da 6400     		lsls	r4, r4, #1
 376              	.LVL69:
 302:main.c        ****                 /*
 303:main.c        ****                 acc[m/s]=acc[mg]*9.81/1000; then I want to keep info from 3 decimals so
 304:main.c        ****                 acc=acc[m/s]*1000;
 305:main.c        ****                 so the overall calculation would be acc[m/s]=acc[mg]*9.81;
 306:main.c        ****                 */
ARM GAS  C:\Users\noemi\AppData\Local\Temp\cco4ar4Z.s 			page 13


 307:main.c        ****                 
 308:main.c        ****                 OutX_f=OutX*9.807; 
 377              		.loc 1 308 0
 378 01dc 4000     		lsls	r0, r0, #1
 379              	.LVL70:
 380 01de FFF7FEFF 		bl	__aeabi_i2d
 381              	.LVL71:
 382 01e2 2BA3     		adr	r3, .L24
 383 01e4 D3E90023 		ldrd	r2, [r3]
 384 01e8 FFF7FEFF 		bl	__aeabi_dmul
 385              	.LVL72:
 386 01ec FFF7FEFF 		bl	__aeabi_d2f
 387              	.LVL73:
 388 01f0 0746     		mov	r7, r0
 389              	.LVL74:
 309:main.c        ****                 OutY_f=OutY*9.807; 
 390              		.loc 1 309 0
 391 01f2 2846     		mov	r0, r5
 392              	.LVL75:
 393 01f4 FFF7FEFF 		bl	__aeabi_i2d
 394              	.LVL76:
 395 01f8 25A3     		adr	r3, .L24
 396 01fa D3E90023 		ldrd	r2, [r3]
 397 01fe FFF7FEFF 		bl	__aeabi_dmul
 398              	.LVL77:
 399 0202 FFF7FEFF 		bl	__aeabi_d2f
 400              	.LVL78:
 401 0206 0546     		mov	r5, r0
 402              	.LVL79:
 310:main.c        ****                 OutZ_f=OutZ*9.807; 
 403              		.loc 1 310 0
 404 0208 2046     		mov	r0, r4
 405              	.LVL80:
 406 020a FFF7FEFF 		bl	__aeabi_i2d
 407              	.LVL81:
 408 020e 20A3     		adr	r3, .L24
 409 0210 D3E90023 		ldrd	r2, [r3]
 410 0214 FFF7FEFF 		bl	__aeabi_dmul
 411              	.LVL82:
 412 0218 FFF7FEFF 		bl	__aeabi_d2f
 413              	.LVL83:
 414 021c 0646     		mov	r6, r0
 415              	.LVL84:
 311:main.c        ****                 
 312:main.c        ****                 /*
 313:main.c        ****                 Casting from float to int. The easiest way is to assign the variable to an  int var
 314:main.c        ****                 it does not perform any sort of rounding or approximation. The non-fractional part 
 315:main.c        ****                 float is representable as an int, then casting performs an implicit conversion that
 316:main.c        ****                 */
 317:main.c        ****                 OutX_32= (int32)(OutX_f);
 416              		.loc 1 317 0
 417 021e 3846     		mov	r0, r7
 418              	.LVL85:
 419 0220 FFF7FEFF 		bl	__aeabi_f2iz
 420              	.LVL86:
 421 0224 0446     		mov	r4, r0
 422              	.LVL87:
ARM GAS  C:\Users\noemi\AppData\Local\Temp\cco4ar4Z.s 			page 14


 318:main.c        ****                 OutY_32= (int32)(OutY_f);
 423              		.loc 1 318 0
 424 0226 2846     		mov	r0, r5
 425              	.LVL88:
 426 0228 FFF7FEFF 		bl	__aeabi_f2iz
 427              	.LVL89:
 428 022c 0546     		mov	r5, r0
 429              	.LVL90:
 319:main.c        ****                 OutZ_32= (int32)(OutZ_f);
 430              		.loc 1 319 0
 431 022e 3046     		mov	r0, r6
 432              	.LVL91:
 433 0230 FFF7FEFF 		bl	__aeabi_f2iz
 434              	.LVL92:
 320:main.c        ****                 
 321:main.c        ****                 /*
 322:main.c        ****                 Packet preparation in 8-bit values (UART module with 8-bit data packet)
 323:main.c        ****                 */
 324:main.c        ****                 OutArray[1] = (uint8_t)(OutX_32 & 0xFF); //LSB
 435              		.loc 1 324 0
 436 0234 8DF80140 		strb	r4, [sp, #1]
 325:main.c        ****                 OutArray[2] = (uint8_t)((OutX_32 >> 8)&0xFF);
 437              		.loc 1 325 0
 438 0238 C4F30723 		ubfx	r3, r4, #8, #8
 439 023c 8DF80230 		strb	r3, [sp, #2]
 326:main.c        ****                 OutArray[3] = (uint8_t)((OutX_32 >> 16)&0xFF);
 440              		.loc 1 326 0
 441 0240 C4F30743 		ubfx	r3, r4, #16, #8
 442 0244 8DF80330 		strb	r3, [sp, #3]
 327:main.c        ****                 OutArray[4] = (uint8_t)(OutX_32 >> 24); //MSB
 443              		.loc 1 327 0
 444 0248 240E     		lsrs	r4, r4, #24
 445              	.LVL93:
 446 024a 8DF80440 		strb	r4, [sp, #4]
 328:main.c        ****                 
 329:main.c        ****                 OutArray[5] = (uint8_t)(OutY_32 & 0xFF);
 447              		.loc 1 329 0
 448 024e 8DF80550 		strb	r5, [sp, #5]
 330:main.c        ****                 OutArray[6] = (uint8_t)((OutY_32 >> 8)&0xFF);
 449              		.loc 1 330 0
 450 0252 C5F30723 		ubfx	r3, r5, #8, #8
 451 0256 8DF80630 		strb	r3, [sp, #6]
 331:main.c        ****                 OutArray[7] = (uint8_t)((OutY_32 >> 16)&0xFF);
 452              		.loc 1 331 0
 453 025a C5F30743 		ubfx	r3, r5, #16, #8
 454 025e 8DF80730 		strb	r3, [sp, #7]
 332:main.c        ****                 OutArray[8] = (uint8_t)(OutY_32 >> 24);
 455              		.loc 1 332 0
 456 0262 2B0E     		lsrs	r3, r5, #24
 457 0264 8DF80830 		strb	r3, [sp, #8]
 333:main.c        ****                 
 334:main.c        ****                 OutArray[9] = (uint8_t)(OutZ_32 & 0xFF);
 458              		.loc 1 334 0
 459 0268 8DF80900 		strb	r0, [sp, #9]
 335:main.c        ****                 OutArray[10] = (uint8_t)((OutZ_32 >> 8)&0xFF);
 460              		.loc 1 335 0
 461 026c C0F30723 		ubfx	r3, r0, #8, #8
ARM GAS  C:\Users\noemi\AppData\Local\Temp\cco4ar4Z.s 			page 15


 462 0270 8DF80A30 		strb	r3, [sp, #10]
 336:main.c        ****                 OutArray[11] = (uint8_t)((OutZ_32 >> 16)&0xFF);
 463              		.loc 1 336 0
 464 0274 C0F30743 		ubfx	r3, r0, #16, #8
 465 0278 8DF80B30 		strb	r3, [sp, #11]
 337:main.c        ****                 OutArray[12] = (uint8_t)(OutZ_32 >> 24);
 466              		.loc 1 337 0
 467 027c 000E     		lsrs	r0, r0, #24
 468              	.LVL94:
 469 027e 8DF80C00 		strb	r0, [sp, #12]
 338:main.c        ****                 
 339:main.c        ****                 UART_Debug_PutArray(OutArray, packet_dimension);
 470              		.loc 1 339 0
 471 0282 0E21     		movs	r1, #14
 472 0284 6846     		mov	r0, sp
 473 0286 FFF7FEFF 		bl	UART_Debug_PutArray
 474              	.LVL95:
 475 028a 8AE7     		b	.L21
 476              	.L25:
 477 028c AFF30080 		.align	3
 478              	.L24:
 479 0290 77BE9F1A 		.word	446676599
 480 0294 2F9D2340 		.word	1076075823
 481 0298 00000000 		.word	.LC0
 482 029c 20000000 		.word	.LC1
 483 02a0 48000000 		.word	.LC2
 484 02a4 6C000000 		.word	.LC3
 485 02a8 88000000 		.word	.LC4
 486 02ac C4000000 		.word	.LC5
 487 02b0 E4000000 		.word	.LC6
 488 02b4 20010000 		.word	.LC7
 489 02b8 58010000 		.word	.LC8
 490 02bc 94010000 		.word	.LC9
 491 02c0 C8010000 		.word	.LC10
 492 02c4 E8010000 		.word	.LC11
 493 02c8 24020000 		.word	.LC12
 494 02cc 5C020000 		.word	.LC13
 495 02d0 00000000 		.word	Custom_ISR_Timer_XYZ
 496 02d4 00000000 		.word	PacketReadyFlag
 497 02d8 00000000 		.word	Acceleration
 498              		.cfi_endproc
 499              	.LFE64:
 500              		.size	main, .-main
 501              		.comm	PacketReadyFlag,1,1
 502              		.comm	Acceleration,6,4
 503              		.section	.rodata.str1.4,"aMS",%progbits,1
 504              		.align	2
 505              	.LC0:
 506 0000 44657669 		.ascii	"Device 0x%02X is connected\015\012\000"
 506      63652030 
 506      78253032 
 506      58206973 
 506      20636F6E 
 507 001d 000000   		.space	3
 508              	.LC1:
 509 0020 57484F20 		.ascii	"WHO AM I REG: 0x%02X [Expected: 0x33]\015\012\000"
 509      414D2049 
ARM GAS  C:\Users\noemi\AppData\Local\Temp\cco4ar4Z.s 			page 16


 509      20524547 
 509      3A203078 
 509      25303258 
 510              	.LC2:
 511 0048 4572726F 		.ascii	"Error occurred during I2C comm\015\012\000"
 511      72206F63 
 511      63757272 
 511      65642064 
 511      7572696E 
 512 0069 000000   		.space	3
 513              	.LC3:
 514 006c 53544154 		.ascii	"STATUS REGISTER: 0x%02X\015\012\000"
 514      55532052 
 514      45474953 
 514      5445523A 
 514      20307825 
 515 0086 0000     		.space	2
 516              	.LC4:
 517 0088 4572726F 		.ascii	"Error occurred during I2C comm to read status regis"
 517      72206F63 
 517      63757272 
 517      65642064 
 517      7572696E 
 518 00bb 7465720D 		.ascii	"ter\015\012\000"
 518      0A00
 519 00c1 000000   		.space	3
 520              	.LC5:
 521 00c4 434F4E54 		.ascii	"CONTROL REGISTER 1: 0x%02X\015\012\000"
 521      524F4C20 
 521      52454749 
 521      53544552 
 521      20313A20 
 522 00e1 000000   		.space	3
 523              	.LC6:
 524 00e4 4572726F 		.ascii	"Error occurred during I2C comm to read control regi"
 524      72206F63 
 524      63757272 
 524      65642064 
 524      7572696E 
 525 0117 73746572 		.ascii	"ster 1\015\012\000"
 525      20310D0A 
 525      00
 526              	.LC7:
 527 0120 434F4E54 		.ascii	"CONTROL REGISTER 1 successfully written as: 0x%02X\015"
 527      524F4C20 
 527      52454749 
 527      53544552 
 527      20312073 
 528 0153 0A00     		.ascii	"\012\000"
 529 0155 000000   		.space	3
 530              	.LC8:
 531 0158 4572726F 		.ascii	"Error occurred during I2C comm to set control regis"
 531      72206F63 
 531      63757272 
 531      65642064 
 531      7572696E 
 532 018b 74657220 		.ascii	"ter 1\015\012\000"
ARM GAS  C:\Users\noemi\AppData\Local\Temp\cco4ar4Z.s 			page 17


 532      310D0A00 
 533 0193 00       		.space	1
 534              	.LC9:
 535 0194 434F4E54 		.ascii	"CONTROL REGISTER 1 after being updated: 0x%02X\015\012"
 535      524F4C20 
 535      52454749 
 535      53544552 
 535      20312061 
 536 01c4 00       		.ascii	"\000"
 537 01c5 000000   		.space	3
 538              	.LC10:
 539 01c8 434F4E54 		.ascii	"CONTROL REGISTER 4: 0x%02X\015\012\000"
 539      524F4C20 
 539      52454749 
 539      53544552 
 539      20343A20 
 540 01e5 000000   		.space	3
 541              	.LC11:
 542 01e8 4572726F 		.ascii	"Error occurred during I2C comm to read control regi"
 542      72206F63 
 542      63757272 
 542      65642064 
 542      7572696E 
 543 021b 73746572 		.ascii	"ster4\015\012\000"
 543      340D0A00 
 544 0223 00       		.space	1
 545              	.LC12:
 546 0224 434F4E54 		.ascii	"CONTROL REGISTER 4 successfully written as: 0x%02X\015"
 546      524F4C20 
 546      52454749 
 546      53544552 
 546      20342073 
 547 0257 0A00     		.ascii	"\012\000"
 548 0259 000000   		.space	3
 549              	.LC13:
 550 025c 434F4E54 		.ascii	"CONTROL REGISTER 4 after being updated: 0x%02X\015\012"
 550      524F4C20 
 550      52454749 
 550      53544552 
 550      20342061 
 551 028c 00       		.ascii	"\000"
 552              		.text
 553              	.Letext0:
 554              		.file 2 "c:\\program files (x86)\\cypress\\psoc creator\\4.3\\psoc creator\\import\\gnu\\arm\\5.4.
 555              		.file 3 "c:\\program files (x86)\\cypress\\psoc creator\\4.3\\psoc creator\\import\\gnu\\arm\\5.4.
 556              		.file 4 "Generated_Source\\PSoC5/cytypes.h"
 557              		.file 5 "ErrorCodes.h"
 558              		.file 6 "Generated_Source\\PSoC5/core_cm3.h"
 559              		.file 7 "InterruptRoutines.h"
 560              		.file 8 "I2C_Interface.h"
 561              		.file 9 "c:\\program files (x86)\\cypress\\psoc creator\\4.3\\psoc creator\\import\\gnu\\arm\\5.4.
 562              		.file 10 "Generated_Source\\PSoC5/UART_Debug.h"
 563              		.file 11 "Generated_Source\\PSoC5/CyLib.h"
 564              		.file 12 "Generated_Source\\PSoC5/Timer.h"
 565              		.file 13 "Generated_Source\\PSoC5/isr_timer.h"